; Function Attrs: mustprogress uwtable
define dso_local noundef i32 @_ZN12RandomNumber8rnd_uptoEjPK6FilterPKNSt7__cxx1112basic_stringIcSt11char_traitsIcESaIcEEE(ptr nocapture noundef nonnull readonly align 8 dereferenceable(72) %0, i32 noundef %1, ptr noundef %2, ptr noundef %3) unnamed_addr #3 align 2 {
  %5 = getelementptr inbounds i8, ptr %0, i64 8
  %6 = load ptr, ptr %5, align 8
  %7 = load ptr, ptr %6, align 8
  %8 = getelementptr inbounds i8, ptr %7, i64 24
  %9 = load ptr, ptr %8, align 8
  %10 = tail call noundef i32 %9(ptr noundef nonnull align 8 dereferenceable(8) %6, i32 noundef %1, ptr noundef %2, ptr noundef %3)
  ret i32 %10
}